; Function Attrs: nounwind sspstrong uwtable
define dso_local ptr @grabbag__replaygain_store_to_vorbiscomment_album(ptr noundef %0, float noundef %1, float noundef %2) local_unnamed_addr #0 {
  %4 = tail call i32 @FLAC__metadata_object_vorbiscomment_remove_entries_matching(ptr noundef %0, ptr noundef nonnull @.str.3) #14
  %5 = icmp slt i32 %4, 0
  br i1 %5, label %13, label %6

6:                                                ; preds = %3
  %7 = tail call i32 @FLAC__metadata_object_vorbiscomment_remove_entries_matching(ptr noundef %0, ptr noundef nonnull @.str.4) #14
  %8 = icmp slt i32 %7, 0
  br i1 %8, label %13, label %9

9:                                                ; preds = %6
  %10 = tail call fastcc i32 @append_tag_(ptr noundef %0, ptr noundef nonnull @.str.10, ptr noundef nonnull @.str.3, float noundef %1)
  %.not = icmp eq i32 %10, 0
  br i1 %.not, label %13, label %11

11:                                               ; preds = %9
  %12 = tail call fastcc i32 @append_tag_(ptr noundef %0, ptr noundef nonnull @.str.11, ptr noundef nonnull @.str.4, float noundef %2)
  %.not7 = icmp eq i32 %12, 0
  %spec.select = select i1 %.not7, ptr @.str.5, ptr null
  br label %13

13:                                               ; preds = %11, %9, %3, %6
  %.0 = phi ptr [ @.str.5, %6 ], [ @.str.5, %3 ], [ @.str.5, %9 ], [ %spec.select, %11 ]
  ret ptr %.0
}